target datalayout = "e-m:e-p270:32:32-p271:32:32-p272:64:64-i64:64-i128:128-f80:128-n8:16:32:64-S128"
target triple = "x86_64-pc-linux-gnu"

@.str.3258 = private unnamed_addr constant [28 x i8] c"Dissector %s not registered\00", align 1

; Function Attrs: null_pointer_is_valid sspstrong uwtable
define internal i32 @btatt_call_dissector_by_dissector_name_with_data(ptr noundef %0, ptr noundef %1, ptr noundef %2, ptr noundef %3, ptr noundef %4) #0 {
  %6 = alloca ptr, align 8
  %7 = alloca ptr, align 8
  %8 = alloca ptr, align 8
  %9 = alloca ptr, align 8
  %10 = alloca ptr, align 8
  %11 = alloca ptr, align 8
  store ptr %0, ptr %6, align 8
  store ptr %1, ptr %7, align 8
  store ptr %2, ptr %8, align 8
  store ptr %3, ptr %9, align 8
  store ptr %4, ptr %10, align 8
  call void @llvm.lifetime.start.p0(i64 8, ptr %11) #12
  %12 = load ptr, ptr %6, align 8
  %13 = call ptr @find_dissector(ptr noundef %12)
  store ptr %13, ptr %11, align 8
  %14 = load ptr, ptr %11, align 8
  %15 = icmp ne ptr %14, null
  br i1 %15, label %16, label %23

16:                                               ; preds = %5
  %17 = load ptr, ptr %11, align 8
  %18 = load ptr, ptr %7, align 8
  %19 = load ptr, ptr %8, align 8
  %20 = load ptr, ptr %9, align 8
  %21 = load ptr, ptr %10, align 8
  %22 = call i32 @call_dissector_with_data(ptr noundef %17, ptr noundef %18, ptr noundef %19, ptr noundef %20, ptr noundef %21)
  call void @llvm.lifetime.end.p0(i64 8, ptr %11) #12
  ret i32 %22

23:                                               ; preds = %5
  %24 = load ptr, ptr %6, align 8
  call void (ptr, ...) @proto_report_dissector_bug(ptr noundef @.str.3258, ptr noundef %24) #14
  unreachable
}