; Function Attrs: null_pointer_is_valid sspstrong uwtable
define internal fastcc void @btatt_call_dissector_by_dissector_name_with_data(ptr noundef %0, ptr noundef %1, ptr noundef %2, ptr noundef %3, ptr noundef nonnull %4) unnamed_addr #1 {
  %6 = tail call ptr @find_dissector(ptr noundef %0)
  %.not = icmp eq ptr %6, null
  br i1 %.not, label %9, label %7

7:                                                ; preds = %5
  %8 = tail call i32 @call_dissector_with_data(ptr noundef nonnull %6, ptr noundef %1, ptr noundef %2, ptr noundef %3, ptr noundef nonnull %4)
  ret void

9:                                                ; preds = %5
  tail call void (ptr, ...) @proto_report_dissector_bug(ptr noundef nonnull @.str.3258, ptr noundef %0) #17
  unreachable
}